; Function Attrs: mustprogress uwtable
define internal noundef nonnull ptr @_ZN7testing8internal15TestFactoryImplIN12_GLOBAL__N_132BuildLogTest_SpacesInOutput_TestEE10CreateTestEv(ptr nocapture nonnull readnone align 8 %0) unnamed_addr #3 align 2 personality ptr @__gxx_personality_v0 {
  %2 = tail call noalias noundef nonnull dereferenceable(288) ptr @_Znwm(i64 noundef 288) #21
  invoke void @_ZN25StateTestWithBuiltinRulesC2Ev(ptr noundef nonnull align 8 dereferenceable(280) %2)
          to label %3 unwind label %5

3:                                                ; preds = %1
  %4 = getelementptr inbounds i8, ptr %2, i64 280
  store ptr getelementptr inbounds ({ [9 x ptr], [3 x ptr] }, ptr @_ZTVN12_GLOBAL__N_132BuildLogTest_SpacesInOutput_TestE, i64 0, i32 0, i64 2), ptr %2, align 8
  store ptr getelementptr inbounds ({ [9 x ptr], [3 x ptr] }, ptr @_ZTVN12_GLOBAL__N_132BuildLogTest_SpacesInOutput_TestE, i64 0, i32 1, i64 2), ptr %4, align 8
  ret ptr %2

5:                                                ; preds = %1
  %6 = landingpad { ptr, i32 }
          cleanup
  tail call void @_ZdlPv(ptr noundef nonnull %2) #20
  resume { ptr, i32 } %6
}